; ModuleID = '12/25.c'
source_filename = "12/25.c"
target datalayout = "e-m:e-p270:32:32-p271:32:32-p272:64:64-i64:64-f80:128-n8:16:32:64-S128"
target triple = "x86_64-pc-linux-gnu"

@.str = private unnamed_addr constant [3 x i8] c"%d\00", align 1
@.str.1 = private unnamed_addr constant [4 x i8] c"%d\0A\00", align 1

; Function Attrs: noinline nounwind uwtable
define dso_local i32 @main(i32 %0, i8** %1) #0 {
  %3 = alloca i32, align 4
  %4 = alloca i32, align 4
  %5 = alloca i8**, align 8
  %6 = alloca i32, align 4
  %7 = alloca i32, align 4
  %8 = alloca [16 x i32], align 16
  %9 = alloca i32, align 4
  %10 = alloca i32, align 4
  %11 = alloca i32, align 4
  %12 = alloca i32, align 4
  %13 = alloca i32, align 4
  store i32 0, i32* %3, align 4
  store i32 %0, i32* %4, align 4
  store i8** %1, i8*** %5, align 8
  store i32 1, i32* %6, align 4
  br label %14

14:                                               ; preds = %86, %2
  %15 = load i32, i32* %6, align 4
  %16 = icmp slt i32 %15, 1000
  br i1 %16, label %17, label %89

17:                                               ; preds = %14
  store i32 0, i32* %10, align 4
  store i32 0, i32* %13, align 4
  store i32 0, i32* %7, align 4
  br label %18

18:                                               ; preds = %43, %17
  %19 = load i32, i32* %7, align 4
  %20 = icmp slt i32 %19, 16
  br i1 %20, label %21, label %46

21:                                               ; preds = %18
  %22 = call i32 (i8*, ...) @__isoc99_scanf(i8* getelementptr inbounds ([3 x i8], [3 x i8]* @.str, i64 0, i64 0), i32* %9)
  %23 = load i32, i32* %9, align 4
  %24 = icmp eq i32 %23, -1
  br i1 %24, label %25, label %26

25:                                               ; preds = %21
  br label %46

26:                                               ; preds = %21
  %27 = load i32, i32* %9, align 4
  %28 = icmp ne i32 %27, -1
  br i1 %28, label %29, label %41

29:                                               ; preds = %26
  %30 = load i32, i32* %9, align 4
  %31 = icmp eq i32 %30, 0
  br i1 %31, label %32, label %33

32:                                               ; preds = %29
  br label %46

33:                                               ; preds = %29
  %34 = load i32, i32* %9, align 4
  %35 = load i32, i32* %7, align 4
  %36 = sext i32 %35 to i64
  %37 = getelementptr inbounds [16 x i32], [16 x i32]* %8, i64 0, i64 %36
  store i32 %34, i32* %37, align 4
  %38 = load i32, i32* %10, align 4
  %39 = add nsw i32 %38, 1
  store i32 %39, i32* %10, align 4
  br label %40

40:                                               ; preds = %33
  br label %41

41:                                               ; preds = %40, %26
  br label %42

42:                                               ; preds = %41
  br label %43

43:                                               ; preds = %42
  %44 = load i32, i32* %7, align 4
  %45 = add nsw i32 %44, 1
  store i32 %45, i32* %7, align 4
  br label %18

46:                                               ; preds = %32, %25, %18
  %47 = load i32, i32* %9, align 4
  %48 = icmp eq i32 %47, -1
  br i1 %48, label %49, label %50

49:                                               ; preds = %46
  br label %89

50:                                               ; preds = %46
  store i32 0, i32* %11, align 4
  br label %51

51:                                               ; preds = %80, %50
  %52 = load i32, i32* %11, align 4
  %53 = load i32, i32* %10, align 4
  %54 = icmp slt i32 %52, %53
  br i1 %54, label %55, label %83

55:                                               ; preds = %51
  store i32 0, i32* %12, align 4
  br label %56

56:                                               ; preds = %76, %55
  %57 = load i32, i32* %12, align 4
  %58 = load i32, i32* %10, align 4
  %59 = icmp slt i32 %57, %58
  br i1 %59, label %60, label %79

60:                                               ; preds = %56
  %61 = load i32, i32* %11, align 4
  %62 = sext i32 %61 to i64
  %63 = getelementptr inbounds [16 x i32], [16 x i32]* %8, i64 0, i64 %62
  %64 = load i32, i32* %63, align 4
  %65 = load i32, i32* %12, align 4
  %66 = sext i32 %65 to i64
  %67 = getelementptr inbounds [16 x i32], [16 x i32]* %8, i64 0, i64 %66
  %68 = load i32, i32* %67, align 4
  %69 = mul nsw i32 2, %68
  %70 = sub nsw i32 %64, %69
  %71 = icmp eq i32 %70, 0
  br i1 %71, label %72, label %75

72:                                               ; preds = %60
  %73 = load i32, i32* %13, align 4
  %74 = add nsw i32 %73, 1
  store i32 %74, i32* %13, align 4
  br label %75

75:                                               ; preds = %72, %60
  br label %76

76:                                               ; preds = %75
  %77 = load i32, i32* %12, align 4
  %78 = add nsw i32 %77, 1
  store i32 %78, i32* %12, align 4
  br label %56

79:                                               ; preds = %56
  br label %80

80:                                               ; preds = %79
  %81 = load i32, i32* %11, align 4
  %82 = add nsw i32 %81, 1
  store i32 %82, i32* %11, align 4
  br label %51

83:                                               ; preds = %51
  %84 = load i32, i32* %13, align 4
  %85 = call i32 (i8*, ...) @printf(i8* getelementptr inbounds ([4 x i8], [4 x i8]* @.str.1, i64 0, i64 0), i32 %84)
  br label %86

86:                                               ; preds = %83
  %87 = load i32, i32* %6, align 4
  %88 = add nsw i32 %87, 1
  store i32 %88, i32* %6, align 4
  br label %14

89:                                               ; preds = %49, %14
  ret i32 0
}

declare dso_local i32 @__isoc99_scanf(i8*, ...) #1

declare dso_local i32 @printf(i8*, ...) #1


!llvm.module.flags = !{!0}
!llvm.ident = !{!1}

!0 = !{i32 1, !"wchar_size", i32 4}
!1 = !{!"clang version 10.0.0-4ubuntu1 "}
